; Function Attrs: mustprogress uwtable
define internal void @_ZNK12_GLOBAL__N_116itanium_demangle18ArraySubscriptExpr9printLeftERNS0_12OutputBufferE(ptr noundef nonnull readonly align 8 captures(none) dereferenceable(32) %0, ptr noundef nonnull align 8 dereferenceable(44) %1) unnamed_addr #2 align 2 {
  %3 = getelementptr inbounds nuw i8, ptr %0, i64 16
  %4 = load ptr, ptr %3, align 8, !tbaa !360
  %5 = getelementptr inbounds nuw i8, ptr %0, i64 9
  %.val = load i16, ptr %5, align 1
  %6 = trunc i16 %.val to i8
  %7 = and i8 %6, 63
  tail call fastcc void @_ZNK12_GLOBAL__N_116itanium_demangle4Node14printAsOperandERNS0_12OutputBufferENS1_4PrecEb(ptr noundef nonnull align 8 dereferenceable(11) %4, ptr noundef nonnull align 8 dereferenceable(44) %1, i8 noundef zeroext %7, i1 noundef zeroext false)
  %8 = getelementptr inbounds nuw i8, ptr %1, i64 40
  %9 = load i32, ptr %8, align 8, !tbaa !228
  %10 = add i32 %9, 1
  store i32 %10, ptr %8, align 8, !tbaa !228
  %11 = getelementptr inbounds nuw i8, ptr %1, i64 16
  %12 = load i64, ptr %11, align 8, !tbaa !224
  %13 = add i64 %12, 1
  %14 = getelementptr inbounds nuw i8, ptr %1, i64 24
  %15 = load i64, ptr %14, align 8, !tbaa !225
  %16 = icmp ugt i64 %13, %15
  br i1 %16, label %17, label %._ZN12_GLOBAL__N_116itanium_demangle12OutputBuffer4growEm.exit_crit_edge.i.i

._ZN12_GLOBAL__N_116itanium_demangle12OutputBuffer4growEm.exit_crit_edge.i.i: ; preds = %2
  %.phi.trans.insert.i.i = getelementptr inbounds nuw i8, ptr %1, i64 8
  %.pre.i.i = load ptr, ptr %.phi.trans.insert.i.i, align 8, !tbaa !222
  br label %_ZN12_GLOBAL__N_116itanium_demangle12OutputBuffer9printOpenEc.exit

17:                                               ; preds = %2
  %18 = add i64 %12, 993
  %19 = shl i64 %15, 1
  %spec.select.i.i.i = tail call i64 @llvm.umax.i64(i64 %19, i64 %18)
  store i64 %spec.select.i.i.i, ptr %14, align 8, !tbaa !225
  %20 = getelementptr inbounds nuw i8, ptr %1, i64 8
  %21 = load ptr, ptr %20, align 8, !tbaa !222
  %22 = tail call ptr @realloc(ptr noundef %21, i64 noundef %spec.select.i.i.i) #34
  store ptr %22, ptr %20, align 8, !tbaa !222
  %23 = icmp eq ptr %22, null
  br i1 %23, label %24, label %._ZN12_GLOBAL__N_116itanium_demangle12OutputBuffer4growEm.exit_crit_edge1.i.i

._ZN12_GLOBAL__N_116itanium_demangle12OutputBuffer4growEm.exit_crit_edge1.i.i: ; preds = %17
  %.pre2.i.i = load i64, ptr %11, align 8, !tbaa !224
  %.pre3.i.i = add i64 %.pre2.i.i, 1
  br label %_ZN12_GLOBAL__N_116itanium_demangle12OutputBuffer9printOpenEc.exit

24:                                               ; preds = %17
  tail call void @abort() #33
  unreachable

_ZN12_GLOBAL__N_116itanium_demangle12OutputBuffer9printOpenEc.exit: ; preds = %._ZN12_GLOBAL__N_116itanium_demangle12OutputBuffer4growEm.exit_crit_edge.i.i, %._ZN12_GLOBAL__N_116itanium_demangle12OutputBuffer4growEm.exit_crit_edge1.i.i
  %.pre-phi.i.i = phi i64 [ %.pre3.i.i, %._ZN12_GLOBAL__N_116itanium_demangle12OutputBuffer4growEm.exit_crit_edge1.i.i ], [ %13, %._ZN12_GLOBAL__N_116itanium_demangle12OutputBuffer4growEm.exit_crit_edge.i.i ]
  %25 = phi i64 [ %.pre2.i.i, %._ZN12_GLOBAL__N_116itanium_demangle12OutputBuffer4growEm.exit_crit_edge1.i.i ], [ %12, %._ZN12_GLOBAL__N_116itanium_demangle12OutputBuffer4growEm.exit_crit_edge.i.i ]
  %26 = phi ptr [ %22, %._ZN12_GLOBAL__N_116itanium_demangle12OutputBuffer4growEm.exit_crit_edge1.i.i ], [ %.pre.i.i, %._ZN12_GLOBAL__N_116itanium_demangle12OutputBuffer4growEm.exit_crit_edge.i.i ]
  store i64 %.pre-phi.i.i, ptr %11, align 8, !tbaa !224
  %27 = getelementptr inbounds nuw i8, ptr %26, i64 %25
  store i8 91, ptr %27, align 1, !tbaa !210
  %28 = getelementptr inbounds nuw i8, ptr %0, i64 24
  %29 = load ptr, ptr %28, align 8, !tbaa !362
  tail call fastcc void @_ZNK12_GLOBAL__N_116itanium_demangle4Node14printAsOperandERNS0_12OutputBufferENS1_4PrecEb(ptr noundef nonnull align 8 dereferenceable(11) %29, ptr noundef nonnull align 8 dereferenceable(44) %1, i8 noundef zeroext 19, i1 noundef zeroext false)
  %30 = load i32, ptr %8, align 8, !tbaa !228
  %31 = add i32 %30, -1
  store i32 %31, ptr %8, align 8, !tbaa !228
  %32 = load i64, ptr %11, align 8, !tbaa !224
  %33 = add i64 %32, 1
  %34 = load i64, ptr %14, align 8, !tbaa !225
  %35 = icmp ugt i64 %33, %34
  br i1 %35, label %36, label %._ZN12_GLOBAL__N_116itanium_demangle12OutputBuffer4growEm.exit_crit_edge.i.i5

._ZN12_GLOBAL__N_116itanium_demangle12OutputBuffer4growEm.exit_crit_edge.i.i5: ; preds = %_ZN12_GLOBAL__N_116itanium_demangle12OutputBuffer9printOpenEc.exit
  %.phi.trans.insert.i.i6 = getelementptr inbounds nuw i8, ptr %1, i64 8
  %.pre.i.i7 = load ptr, ptr %.phi.trans.insert.i.i6, align 8, !tbaa !222
  br label %_ZN12_GLOBAL__N_116itanium_demangle12OutputBuffer10printCloseEc.exit

36:                                               ; preds = %_ZN12_GLOBAL__N_116itanium_demangle12OutputBuffer9printOpenEc.exit
  %37 = add i64 %32, 993
  %38 = shl i64 %34, 1
  %spec.select.i.i.i9 = tail call i64 @llvm.umax.i64(i64 %38, i64 %37)
  store i64 %spec.select.i.i.i9, ptr %14, align 8, !tbaa !225
  %39 = getelementptr inbounds nuw i8, ptr %1, i64 8
  %40 = load ptr, ptr %39, align 8, !tbaa !222
  %41 = tail call ptr @realloc(ptr noundef %40, i64 noundef %spec.select.i.i.i9) #34
  store ptr %41, ptr %39, align 8, !tbaa !222
  %42 = icmp eq ptr %41, null
  br i1 %42, label %43, label %._ZN12_GLOBAL__N_116itanium_demangle12OutputBuffer4growEm.exit_crit_edge1.i.i10

._ZN12_GLOBAL__N_116itanium_demangle12OutputBuffer4growEm.exit_crit_edge1.i.i10: ; preds = %36
  %.pre2.i.i11 = load i64, ptr %11, align 8, !tbaa !224
  %.pre3.i.i12 = add i64 %.pre2.i.i11, 1
  br label %_ZN12_GLOBAL__N_116itanium_demangle12OutputBuffer10printCloseEc.exit

43:                                               ; preds = %36
  tail call void @abort() #33
  unreachable

_ZN12_GLOBAL__N_116itanium_demangle12OutputBuffer10printCloseEc.exit: ; preds = %._ZN12_GLOBAL__N_116itanium_demangle12OutputBuffer4growEm.exit_crit_edge.i.i5, %._ZN12_GLOBAL__N_116itanium_demangle12OutputBuffer4growEm.exit_crit_edge1.i.i10
  %.pre-phi.i.i8 = phi i64 [ %.pre3.i.i12, %._ZN12_GLOBAL__N_116itanium_demangle12OutputBuffer4growEm.exit_crit_edge1.i.i10 ], [ %33, %._ZN12_GLOBAL__N_116itanium_demangle12OutputBuffer4growEm.exit_crit_edge.i.i5 ]
  %44 = phi i64 [ %.pre2.i.i11, %._ZN12_GLOBAL__N_116itanium_demangle12OutputBuffer4growEm.exit_crit_edge1.i.i10 ], [ %32, %._ZN12_GLOBAL__N_116itanium_demangle12OutputBuffer4growEm.exit_crit_edge.i.i5 ]
  %45 = phi ptr [ %41, %._ZN12_GLOBAL__N_116itanium_demangle12OutputBuffer4growEm.exit_crit_edge1.i.i10 ], [ %.pre.i.i7, %._ZN12_GLOBAL__N_116itanium_demangle12OutputBuffer4growEm.exit_crit_edge.i.i5 ]
  store i64 %.pre-phi.i.i8, ptr %11, align 8, !tbaa !224
  %46 = getelementptr inbounds nuw i8, ptr %45, i64 %44
  store i8 93, ptr %46, align 1, !tbaa !210
  ret void
}